target datalayout = "e-m:e-p270:32:32-p271:32:32-p272:64:64-i64:64-i128:128-f80:128-n8:16:32:64-S128"
target triple = "x86_64-pc-linux-gnu"

; Function Attrs: nounwind sspstrong uwtable
define internal i32 @utf32le_is_mbc_newline(ptr noundef %0, ptr noundef %1, ptr noundef %2) #0 {
  %4 = alloca i32, align 4
  %5 = alloca ptr, align 8
  %6 = alloca ptr, align 8
  %7 = alloca ptr, align 8
  store ptr %0, ptr %5, align 8, !tbaa !13
  store ptr %1, ptr %6, align 8, !tbaa !13
  store ptr %2, ptr %7, align 8, !tbaa !14
  %8 = load ptr, ptr %5, align 8, !tbaa !13
  %9 = getelementptr inbounds i8, ptr %8, i64 3
  %10 = load ptr, ptr %6, align 8, !tbaa !13
  %11 = icmp ult ptr %9, %10
  br i1 %11, label %12, label %37

12:                                               ; preds = %3
  %13 = load ptr, ptr %5, align 8, !tbaa !13
  %14 = load i8, ptr %13, align 1, !tbaa !17
  %15 = zext i8 %14 to i32
  %16 = icmp eq i32 %15, 10
  br i1 %16, label %17, label %36

17:                                               ; preds = %12
  %18 = load ptr, ptr %5, align 8, !tbaa !13
  %19 = getelementptr inbounds i8, ptr %18, i64 1
  %20 = load i8, ptr %19, align 1, !tbaa !17
  %21 = zext i8 %20 to i32
  %22 = icmp eq i32 %21, 0
  br i1 %22, label %23, label %36

23:                                               ; preds = %17
  %24 = load ptr, ptr %5, align 8, !tbaa !13
  %25 = getelementptr inbounds i8, ptr %24, i64 2
  %26 = load i8, ptr %25, align 1, !tbaa !17
  %27 = zext i8 %26 to i32
  %28 = icmp eq i32 %27, 0
  br i1 %28, label %29, label %36

29:                                               ; preds = %23
  %30 = load ptr, ptr %5, align 8, !tbaa !13
  %31 = getelementptr inbounds i8, ptr %30, i64 3
  %32 = load i8, ptr %31, align 1, !tbaa !17
  %33 = zext i8 %32 to i32
  %34 = icmp eq i32 %33, 0
  br i1 %34, label %35, label %36

35:                                               ; preds = %29
  store i32 1, ptr %4, align 4
  br label %38

36:                                               ; preds = %29, %23, %17, %12
  br label %37

37:                                               ; preds = %36, %3
  store i32 0, ptr %4, align 4
  br label %38

38:                                               ; preds = %37, %35
  %39 = load i32, ptr %4, align 4
  ret i32 %39
}