; Function Attrs: mustprogress nofree norecurse nosync nounwind sspstrong willreturn memory(argmem: read) uwtable
define internal range(i32 0, 2) i32 @utf32le_is_mbc_newline(ptr noundef readonly captures(address) %0, ptr noundef readnone captures(address) %1, ptr readnone captures(none) %2) #2 {
  %4 = getelementptr inbounds nuw i8, ptr %0, i64 3
  %5 = icmp ult ptr %4, %1
  br i1 %5, label %6, label %20

6:                                                ; preds = %3
  %7 = load i8, ptr %0, align 1, !tbaa !6
  %8 = icmp eq i8 %7, 10
  br i1 %8, label %9, label %20

9:                                                ; preds = %6
  %10 = getelementptr inbounds nuw i8, ptr %0, i64 1
  %11 = load i8, ptr %10, align 1, !tbaa !6
  %12 = icmp eq i8 %11, 0
  br i1 %12, label %13, label %20

13:                                               ; preds = %9
  %14 = getelementptr inbounds nuw i8, ptr %0, i64 2
  %15 = load i8, ptr %14, align 1, !tbaa !6
  %16 = icmp eq i8 %15, 0
  br i1 %16, label %17, label %20

17:                                               ; preds = %13
  %18 = load i8, ptr %4, align 1, !tbaa !6
  %19 = icmp eq i8 %18, 0
  br i1 %19, label %21, label %20

20:                                               ; preds = %6, %9, %13, %17, %3
  br label %21

21:                                               ; preds = %17, %20
  %.0 = phi i32 [ 0, %20 ], [ 1, %17 ]
  ret i32 %.0
}